; Function Attrs: nounwind uwtable
define dso_local range(i32 0, 64) i32 @Curl_http_size(ptr noundef %0) local_unnamed_addr #0 {
  %2 = getelementptr inbounds nuw i8, ptr %0, i64 232
  %3 = getelementptr inbounds nuw i8, ptr %0, i64 449
  %4 = load i32, ptr %3, align 1
  %5 = and i32 %4, 20480
  %or.cond32 = icmp eq i32 %5, 0
  br i1 %or.cond32, label %7, label %6

6:                                                ; preds = %1
  tail call void @llvm.memset.p0.i64(ptr noundef nonnull align 8 dereferenceable(16) %2, i8 -1, i64 16, i1 false)
  br label %33

7:                                                ; preds = %1
  %8 = load i64, ptr %2, align 8, !tbaa !199
  %.not27 = icmp eq i64 %8, -1
  br i1 %.not27, label %33, label %9

9:                                                ; preds = %7
  %10 = getelementptr inbounds nuw i8, ptr %0, i64 1768
  %11 = load i64, ptr %10, align 8, !tbaa !203
  %.not28 = icmp ne i64 %11, 0
  %12 = and i32 %4, 1024
  %.not29 = icmp eq i32 %12, 0
  %13 = icmp sgt i64 %8, %11
  %14 = and i1 %.not28, %13
  %or.cond34 = and i1 %14, %.not29
  br i1 %or.cond34, label %15, label %16

15:                                               ; preds = %9
  tail call void (ptr, ptr, ...) @Curl_failf(ptr noundef nonnull %0, ptr noundef nonnull @.str.85) #11
  br label %33

16:                                               ; preds = %9
  br i1 %.not29, label %29, label %17

17:                                               ; preds = %16
  %18 = getelementptr inbounds nuw i8, ptr %0, i64 2562
  %19 = load i64, ptr %18, align 2
  %20 = and i64 %19, 134217728
  %.not30 = icmp eq i64 %20, 0
  br i1 %.not30, label %29, label %21

21:                                               ; preds = %17
  %22 = getelementptr inbounds nuw i8, ptr %0, i64 4712
  %23 = load ptr, ptr %22, align 8, !tbaa !128
  %.not31 = icmp eq ptr %23, null
  br i1 %.not31, label %28, label %24

24:                                               ; preds = %21
  %25 = getelementptr inbounds nuw i8, ptr %23, i64 8
  %26 = load i32, ptr %25, align 8, !tbaa !129
  %27 = icmp sgt i32 %26, 0
  br i1 %27, label %28, label %29

28:                                               ; preds = %24, %21
  tail call void (ptr, ptr, ...) @Curl_infof(ptr noundef nonnull %0, ptr noundef nonnull @.str.108) #11
  %.pre = load i64, ptr %2, align 8, !tbaa !199
  br label %29

29:                                               ; preds = %17, %24, %28, %16
  %30 = phi i64 [ %8, %17 ], [ %8, %24 ], [ %.pre, %28 ], [ %8, %16 ]
  tail call void @Curl_pgrsSetDownloadSize(ptr noundef nonnull %0, i64 noundef %30) #11
  %31 = load i64, ptr %2, align 8, !tbaa !199
  %32 = getelementptr inbounds nuw i8, ptr %0, i64 240
  store i64 %31, ptr %32, align 8, !tbaa !202
  br label %33

33:                                               ; preds = %6, %29, %7, %15
  %.0 = phi i32 [ 63, %15 ], [ 0, %7 ], [ 0, %29 ], [ 0, %6 ]
  ret i32 %.0
}